target datalayout = "e-m:e-p270:32:32-p271:32:32-p272:64:64-i64:64-i128:128-f80:128-n8:16:32:64-S128"
target triple = "x86_64-pc-linux-gnu"

%struct.ForEachState = type { ptr, i32 }
%struct.List = type { i32, i32, i32, ptr, [0 x %union.ListCell] }
%union.ListCell = type { ptr }
%struct.DefElem = type { i32, ptr, ptr, ptr, i32, i32 }
%struct.DropdbStmt = type { i32, ptr, i8, ptr }

@.str.18 = private unnamed_addr constant [13 x i8] c"dbcommands.c\00", align 1
@.str.93 = private unnamed_addr constant [6 x i8] c"force\00", align 1
@.str.94 = private unnamed_addr constant [39 x i8] c"unrecognized DROP DATABASE option \22%s\22\00", align 1
@__func__.DropDatabase = private unnamed_addr constant [13 x i8] c"DropDatabase\00", align 1

; Function Attrs: nounwind uwtable
define dso_local void @DropDatabase(ptr noundef %0, ptr noundef %1) #0 {
  %3 = alloca ptr, align 8
  %4 = alloca ptr, align 8
  %5 = alloca i8, align 1
  %6 = alloca ptr, align 8
  %7 = alloca %struct.ForEachState, align 8
  %8 = alloca ptr, align 8
  store ptr %0, ptr %3, align 8
  store ptr %1, ptr %4, align 8
  call void @llvm.lifetime.start.p0(i64 1, ptr %5) #14
  store i8 0, ptr %5, align 1
  call void @llvm.lifetime.start.p0(i64 8, ptr %6) #14
  call void @llvm.lifetime.start.p0(i64 16, ptr %7) #14
  %9 = getelementptr inbounds nuw %struct.ForEachState, ptr %7, i32 0, i32 0
  %10 = load ptr, ptr %4, align 8
  %11 = getelementptr inbounds nuw %struct.DropdbStmt, ptr %10, i32 0, i32 3
  %12 = load ptr, ptr %11, align 8
  store ptr %12, ptr %9, align 8
  %13 = getelementptr inbounds nuw %struct.ForEachState, ptr %7, i32 0, i32 1
  store i32 0, ptr %13, align 8
  %14 = getelementptr i8, ptr %7, i64 12
  call void @llvm.memset.p0.i64(ptr align 4 %14, i8 0, i64 4, i1 false)
  br label %15

15:                                               ; preds = %71, %2
  %16 = getelementptr inbounds nuw %struct.ForEachState, ptr %7, i32 0, i32 0
  %17 = load ptr, ptr %16, align 8
  %18 = icmp ne ptr %17, null
  br i1 %18, label %19, label %36

19:                                               ; preds = %15
  %20 = getelementptr inbounds nuw %struct.ForEachState, ptr %7, i32 0, i32 1
  %21 = load i32, ptr %20, align 8
  %22 = getelementptr inbounds nuw %struct.ForEachState, ptr %7, i32 0, i32 0
  %23 = load ptr, ptr %22, align 8
  %24 = getelementptr inbounds nuw %struct.List, ptr %23, i32 0, i32 1
  %25 = load i32, ptr %24, align 4
  %26 = icmp slt i32 %21, %25
  br i1 %26, label %27, label %36

27:                                               ; preds = %19
  %28 = getelementptr inbounds nuw %struct.ForEachState, ptr %7, i32 0, i32 0
  %29 = load ptr, ptr %28, align 8
  %30 = getelementptr inbounds nuw %struct.List, ptr %29, i32 0, i32 3
  %31 = load ptr, ptr %30, align 8
  %32 = getelementptr inbounds nuw %struct.ForEachState, ptr %7, i32 0, i32 1
  %33 = load i32, ptr %32, align 8
  %34 = sext i32 %33 to i64
  %35 = getelementptr inbounds %union.ListCell, ptr %31, i64 %34
  store ptr %35, ptr %6, align 8
  br label %37

36:                                               ; preds = %19, %15
  store ptr null, ptr %6, align 8
  br label %37

37:                                               ; preds = %36, %27
  %38 = phi i32 [ 1, %27 ], [ 0, %36 ]
  %39 = icmp ne i32 %38, 0
  br i1 %39, label %41, label %40

40:                                               ; preds = %37
  call void @llvm.lifetime.end.p0(i64 16, ptr %7) #14
  br label %75

41:                                               ; preds = %37
  call void @llvm.lifetime.start.p0(i64 8, ptr %8) #14
  %42 = load ptr, ptr %6, align 8
  %43 = load ptr, ptr %42, align 8
  store ptr %43, ptr %8, align 8
  %44 = load ptr, ptr %8, align 8
  %45 = getelementptr inbounds nuw %struct.DefElem, ptr %44, i32 0, i32 2
  %46 = load ptr, ptr %45, align 8
  %47 = call i32 @strcmp(ptr noundef %46, ptr noundef @.str.93) #15
  %48 = icmp eq i32 %47, 0
  br i1 %48, label %49, label %50

49:                                               ; preds = %41
  store i8 1, ptr %5, align 1
  br label %70

50:                                               ; preds = %41
  br label %51

51:                                               ; preds = %50
  br i1 true, label %52, label %54

52:                                               ; preds = %51
  %53 = call zeroext i1 @errstart_cold(i32 noundef 21, ptr noundef null) #17
  br i1 %53, label %56, label %67

54:                                               ; preds = %51
  %55 = call zeroext i1 @errstart(i32 noundef 21, ptr noundef null)
  br i1 %55, label %56, label %67

56:                                               ; preds = %54, %52
  %57 = call i32 @errcode(i32 noundef 16801924)
  %58 = load ptr, ptr %8, align 8
  %59 = getelementptr inbounds nuw %struct.DefElem, ptr %58, i32 0, i32 2
  %60 = load ptr, ptr %59, align 8
  %61 = call i32 (ptr, ...) @errmsg(ptr noundef @.str.94, ptr noundef %60)
  %62 = load ptr, ptr %3, align 8
  %63 = load ptr, ptr %8, align 8
  %64 = getelementptr inbounds nuw %struct.DefElem, ptr %63, i32 0, i32 5
  %65 = load i32, ptr %64, align 4
  %66 = call i32 @parser_errposition(ptr noundef %62, i32 noundef %65)
  call void @errfinish(ptr noundef @.str.18, i32 noundef 2331, ptr noundef @__func__.DropDatabase)
  br label %67

67:                                               ; preds = %56, %54, %52
  unreachable

68:                                               ; No predecessors!
  br label %69

69:                                               ; preds = %68
  br label %70

70:                                               ; preds = %69, %49
  call void @llvm.lifetime.end.p0(i64 8, ptr %8) #14
  br label %71

71:                                               ; preds = %70
  %72 = getelementptr inbounds nuw %struct.ForEachState, ptr %7, i32 0, i32 1
  %73 = load i32, ptr %72, align 8
  %74 = add i32 %73, 1
  store i32 %74, ptr %72, align 8
  br label %15, !llvm.loop !14

75:                                               ; preds = %40
  %76 = load ptr, ptr %4, align 8
  %77 = getelementptr inbounds nuw %struct.DropdbStmt, ptr %76, i32 0, i32 1
  %78 = load ptr, ptr %77, align 8
  %79 = load ptr, ptr %4, align 8
  %80 = getelementptr inbounds nuw %struct.DropdbStmt, ptr %79, i32 0, i32 2
  %81 = load i8, ptr %80, align 8, !range !4, !noundef !5
  %82 = trunc i8 %81 to i1
  %83 = load i8, ptr %5, align 1, !range !4, !noundef !5
  %84 = trunc i8 %83 to i1
  call void @dropdb(ptr noundef %78, i1 noundef zeroext %82, i1 noundef zeroext %84)
  call void @llvm.lifetime.end.p0(i64 8, ptr %6) #14
  call void @llvm.lifetime.end.p0(i64 1, ptr %5) #14
  ret void
}