; Function Attrs: nounwind uwtable
define dso_local void @DropDatabase(ptr noundef %0, ptr noundef readonly captures(none) %1) local_unnamed_addr #0 {
  %3 = getelementptr inbounds nuw i8, ptr %1, i64 24
  %4 = load ptr, ptr %3, align 8
  %.not = icmp eq ptr %4, null
  br i1 %.not, label %._crit_edge, label %.lr.ph

.lr.ph:                                           ; preds = %2
  %5 = getelementptr inbounds nuw i8, ptr %4, i64 4
  %6 = load i32, ptr %5, align 4
  %7 = icmp sgt i32 %6, 0
  br i1 %7, label %.lr.ph28, label %._crit_edge

.lr.ph28:                                         ; preds = %.lr.ph
  %8 = getelementptr inbounds nuw i8, ptr %4, i64 16
  %9 = load ptr, ptr %8, align 8
  %wide.trip.count = zext nneg i32 %6 to i64
  br label %16

10:                                               ; preds = %16
  %indvars.iv.next = add nuw nsw i64 %indvars.iv, 1
  %exitcond.not = icmp eq i64 %indvars.iv.next, %wide.trip.count
  br i1 %exitcond.not, label %._crit_edge, label %16

._crit_edge:                                      ; preds = %10, %.lr.ph, %2
  %.0.lcssa = phi i1 [ false, %2 ], [ false, %.lr.ph ], [ true, %10 ]
  %11 = getelementptr inbounds nuw i8, ptr %1, i64 8
  %12 = load ptr, ptr %11, align 8
  %13 = getelementptr inbounds nuw i8, ptr %1, i64 16
  %14 = load i8, ptr %13, align 8, !range !4, !noundef !5
  %15 = trunc nuw i8 %14 to i1
  tail call void @dropdb(ptr noundef %12, i1 noundef zeroext %15, i1 noundef zeroext %.0.lcssa)
  ret void

16:                                               ; preds = %.lr.ph28, %10
  %indvars.iv = phi i64 [ 0, %.lr.ph28 ], [ %indvars.iv.next, %10 ]
  %17 = getelementptr inbounds nuw %union.ListCell, ptr %9, i64 %indvars.iv
  %18 = load ptr, ptr %17, align 8
  %19 = getelementptr inbounds nuw i8, ptr %18, i64 16
  %20 = load ptr, ptr %19, align 8
  %21 = tail call i32 @strcmp(ptr noundef nonnull dereferenceable(1) %20, ptr noundef nonnull dereferenceable(6) @.str.93) #17
  %22 = icmp eq i32 %21, 0
  br i1 %22, label %10, label %.split

.split:                                           ; preds = %16
  %23 = getelementptr inbounds nuw i8, ptr %18, i64 16
  %24 = tail call zeroext i1 @errstart_cold(i32 noundef 21, ptr noundef null) #19
  tail call void @llvm.assume(i1 %24)
  %25 = tail call i32 @errcode(i32 noundef 16801924) #16
  %26 = load ptr, ptr %23, align 8
  %27 = tail call i32 (ptr, ...) @errmsg(ptr noundef nonnull @.str.94, ptr noundef %26) #16
  %28 = getelementptr inbounds nuw i8, ptr %18, i64 36
  %29 = load i32, ptr %28, align 4
  %30 = tail call i32 @parser_errposition(ptr noundef %0, i32 noundef %29) #16
  tail call void @errfinish(ptr noundef nonnull @.str.18, i32 noundef 2331, ptr noundef nonnull @__func__.DropDatabase) #16
  unreachable
}